; Function Attrs: mustprogress nofree norecurse nosync nounwind willreturn memory(argmem: readwrite) uwtable
define range(i32 1, 8) i32 @png_set_interlace_handling(ptr noalias noundef %0) local_unnamed_addr #0 {
  %.not = icmp eq ptr %0, null
  br i1 %.not, label %9, label %2

2:                                                ; preds = %1
  %3 = getelementptr inbounds i8, ptr %0, i64 612
  %4 = load i8, ptr %3, align 4
  %.not4 = icmp eq i8 %4, 0
  br i1 %.not4, label %9, label %5

5:                                                ; preds = %2
  %6 = getelementptr inbounds i8, ptr %0, i64 308
  %7 = load i32, ptr %6, align 4
  %8 = or i32 %7, 2
  store i32 %8, ptr %6, align 4
  br label %9

9:                                                ; preds = %1, %2, %5
  %.0 = phi i32 [ 7, %5 ], [ 1, %2 ], [ 1, %1 ]
  ret i32 %.0
}